target datalayout = "e-m:e-p270:32:32-p271:32:32-p272:64:64-i64:64-i128:128-f80:128-n8:16:32:64-S128"
target triple = "x86_64-pc-linux-gnu"

%struct.magic_set = type { [2 x ptr], %struct.cont, %struct.out, i32, i32, i32, i32, i32, ptr, i64, i32, %struct.anon, %union.VALUETYPE, i16, i16, i16, i16, i16, i16, i64, i64, i64 }
%struct.cont = type { i64, ptr }
%struct.out = type { ptr, i64, ptr }
%struct.anon = type { ptr, i64, i64, i64 }
%union.VALUETYPE = type { [2 x i64], [112 x i8] }

@.str.30 = private unnamed_addr constant [22 x i8] c"no magic files loaded\00", align 1

; Function Attrs: nounwind uwtable
define internal void @file_clearbuf(ptr noundef %0) #0 {
  %2 = alloca ptr, align 8
  store ptr %0, ptr %2, align 8
  %3 = load ptr, ptr %2, align 8
  %4 = getelementptr inbounds %struct.magic_set, ptr %3, i32 0, i32 2
  %5 = getelementptr inbounds %struct.out, ptr %4, i32 0, i32 0
  %6 = load ptr, ptr %5, align 8
  call void @_efree(ptr noundef %6)
  %7 = load ptr, ptr %2, align 8
  %8 = getelementptr inbounds %struct.magic_set, ptr %7, i32 0, i32 2
  %9 = getelementptr inbounds %struct.out, ptr %8, i32 0, i32 0
  store ptr null, ptr %9, align 8
  %10 = load ptr, ptr %2, align 8
  %11 = getelementptr inbounds %struct.magic_set, ptr %10, i32 0, i32 2
  %12 = getelementptr inbounds %struct.out, ptr %11, i32 0, i32 1
  store i64 0, ptr %12, align 8
  ret void
}

; Function Attrs: nounwind uwtable
define hidden i32 @file_reset(ptr noundef %0, i32 noundef %1) #0 {
  %3 = alloca i32, align 4
  %4 = alloca ptr, align 8
  %5 = alloca i32, align 4
  store ptr %0, ptr %4, align 8
  store i32 %1, ptr %5, align 4
  %6 = load i32, ptr %5, align 4
  %7 = icmp ne i32 %6, 0
  br i1 %7, label %8, label %16

8:                                                ; preds = %2
  %9 = load ptr, ptr %4, align 8
  %10 = getelementptr inbounds %struct.magic_set, ptr %9, i32 0, i32 0
  %11 = getelementptr inbounds [2 x ptr], ptr %10, i64 0, i64 0
  %12 = load ptr, ptr %11, align 8
  %13 = icmp eq ptr %12, null
  br i1 %13, label %14, label %16

14:                                               ; preds = %8
  %15 = load ptr, ptr %4, align 8
  call void (ptr, i32, ptr, ...) @file_error(ptr noundef %15, i32 noundef 0, ptr noundef @.str.30)
  store i32 -1, ptr %3, align 4
  br label %38

16:                                               ; preds = %8, %2
  %17 = load ptr, ptr %4, align 8
  call void @file_clearbuf(ptr noundef %17)
  %18 = load ptr, ptr %4, align 8
  %19 = getelementptr inbounds %struct.magic_set, ptr %18, i32 0, i32 2
  %20 = getelementptr inbounds %struct.out, ptr %19, i32 0, i32 2
  %21 = load ptr, ptr %20, align 8
  %22 = icmp ne ptr %21, null
  br i1 %22, label %23, label %31

23:                                               ; preds = %16
  %24 = load ptr, ptr %4, align 8
  %25 = getelementptr inbounds %struct.magic_set, ptr %24, i32 0, i32 2
  %26 = getelementptr inbounds %struct.out, ptr %25, i32 0, i32 2
  %27 = load ptr, ptr %26, align 8
  call void @_efree(ptr noundef %27)
  %28 = load ptr, ptr %4, align 8
  %29 = getelementptr inbounds %struct.magic_set, ptr %28, i32 0, i32 2
  %30 = getelementptr inbounds %struct.out, ptr %29, i32 0, i32 2
  store ptr null, ptr %30, align 8
  br label %31

31:                                               ; preds = %23, %16
  %32 = load ptr, ptr %4, align 8
  %33 = getelementptr inbounds %struct.magic_set, ptr %32, i32 0, i32 7
  %34 = load i32, ptr %33, align 8
  %35 = and i32 %34, -2
  store i32 %35, ptr %33, align 8
  %36 = load ptr, ptr %4, align 8
  %37 = getelementptr inbounds %struct.magic_set, ptr %36, i32 0, i32 5
  store i32 -1, ptr %37, align 8
  store i32 0, ptr %3, align 4
  br label %38

38:                                               ; preds = %31, %14
  %39 = load i32, ptr %3, align 4
  ret i32 %39
}