; Function Attrs: nounwind uwtable
define hidden noundef i32 @file_reset(ptr nocapture noundef %0, i32 noundef %1) local_unnamed_addr #2 {
  %.not = icmp eq i32 %1, 0
  br i1 %.not, label %7, label %3

3:                                                ; preds = %2
  %4 = load ptr, ptr %0, align 8
  %5 = icmp eq ptr %4, null
  br i1 %5, label %6, label %7

6:                                                ; preds = %3
  tail call void (ptr, i32, ptr, ...) @file_error(ptr noundef nonnull %0, i32 noundef 0, ptr noundef nonnull @.str.30)
  br label %18

7:                                                ; preds = %3, %2
  %8 = getelementptr inbounds i8, ptr %0, i64 32
  %9 = load ptr, ptr %8, align 8
  tail call void @_efree(ptr noundef %9) #17
  tail call void @llvm.memset.p0.i64(ptr noundef nonnull align 8 dereferenceable(16) %8, i8 0, i64 16, i1 false)
  %10 = getelementptr inbounds i8, ptr %0, i64 48
  %11 = load ptr, ptr %10, align 8
  %.not10 = icmp eq ptr %11, null
  br i1 %.not10, label %13, label %12

12:                                               ; preds = %7
  tail call void @_efree(ptr noundef nonnull %11) #17
  store ptr null, ptr %10, align 8
  br label %13

13:                                               ; preds = %12, %7
  %14 = getelementptr inbounds i8, ptr %0, i64 72
  %15 = load i32, ptr %14, align 8
  %16 = and i32 %15, -2
  store i32 %16, ptr %14, align 8
  %17 = getelementptr inbounds i8, ptr %0, i64 64
  store i32 -1, ptr %17, align 8
  br label %18

18:                                               ; preds = %13, %6
  %.0 = phi i32 [ -1, %6 ], [ 0, %13 ]
  ret i32 %.0
}